target datalayout = "e-m:e-p270:32:32-p271:32:32-p272:64:64-i64:64-i128:128-f80:128-n8:16:32:64-S128"
target triple = "x86_64-unknown-linux-gnu"

%struct.conf_value_st = type { ptr, ptr, ptr }

; Function Attrs: nounwind uwtable
define hidden i32 @X509V3_EXT_add_nconf_sk(ptr noundef %conf, ptr noundef %ctx, ptr noundef %section, ptr noundef %sk) #0 {
entry:
  %retval = alloca i32, align 4
  %conf.addr = alloca ptr, align 8
  %ctx.addr = alloca ptr, align 8
  %section.addr = alloca ptr, align 8
  %sk.addr = alloca ptr, align 8
  %ext = alloca ptr, align 8
  %nval = alloca ptr, align 8
  %val = alloca ptr, align 8
  %i = alloca i64, align 8
  store ptr %conf, ptr %conf.addr, align 8
  store ptr %ctx, ptr %ctx.addr, align 8
  store ptr %section, ptr %section.addr, align 8
  store ptr %sk, ptr %sk.addr, align 8
  %0 = load ptr, ptr %conf.addr, align 8
  %1 = load ptr, ptr %section.addr, align 8
  %call = call ptr @NCONF_get_section(ptr noundef %0, ptr noundef %1)
  store ptr %call, ptr %nval, align 8
  %tobool = icmp ne ptr %call, null
  br i1 %tobool, label %if.end, label %if.then

if.then:                                          ; preds = %entry
  store i32 0, ptr %retval, align 4
  br label %return

if.end:                                           ; preds = %entry
  store i64 0, ptr %i, align 8
  br label %for.cond

for.cond:                                         ; preds = %for.inc, %if.end
  %2 = load i64, ptr %i, align 8
  %3 = load ptr, ptr %nval, align 8
  %call1 = call i64 @sk_num(ptr noundef %3)
  %cmp = icmp ult i64 %2, %call1
  br i1 %cmp, label %for.body, label %for.end

for.body:                                         ; preds = %for.cond
  %4 = load ptr, ptr %nval, align 8
  %5 = load i64, ptr %i, align 8
  %call2 = call ptr @sk_value(ptr noundef %4, i64 noundef %5)
  store ptr %call2, ptr %val, align 8
  %6 = load ptr, ptr %conf.addr, align 8
  %7 = load ptr, ptr %ctx.addr, align 8
  %8 = load ptr, ptr %val, align 8
  %name = getelementptr inbounds %struct.conf_value_st, ptr %8, i32 0, i32 1
  %9 = load ptr, ptr %name, align 8
  %10 = load ptr, ptr %val, align 8
  %value = getelementptr inbounds %struct.conf_value_st, ptr %10, i32 0, i32 2
  %11 = load ptr, ptr %value, align 8
  %call3 = call ptr @X509V3_EXT_nconf(ptr noundef %6, ptr noundef %7, ptr noundef %9, ptr noundef %11)
  store ptr %call3, ptr %ext, align 8
  %tobool4 = icmp ne ptr %call3, null
  br i1 %tobool4, label %if.end6, label %if.then5

if.then5:                                         ; preds = %for.body
  store i32 0, ptr %retval, align 4
  br label %return

if.end6:                                          ; preds = %for.body
  %12 = load ptr, ptr %sk.addr, align 8
  %tobool7 = icmp ne ptr %12, null
  br i1 %tobool7, label %if.then8, label %if.end10

if.then8:                                         ; preds = %if.end6
  %13 = load ptr, ptr %sk.addr, align 8
  %14 = load ptr, ptr %ext, align 8
  %call9 = call ptr @X509v3_add_ext(ptr noundef %13, ptr noundef %14, i32 noundef -1)
  br label %if.end10

if.end10:                                         ; preds = %if.then8, %if.end6
  %15 = load ptr, ptr %ext, align 8
  call void @X509_EXTENSION_free(ptr noundef %15)
  br label %for.inc

for.inc:                                          ; preds = %if.end10
  %16 = load i64, ptr %i, align 8
  %inc = add i64 %16, 1
  store i64 %inc, ptr %i, align 8
  br label %for.cond, !llvm.loop !10

for.end:                                          ; preds = %for.cond
  store i32 1, ptr %retval, align 4
  br label %return

return:                                           ; preds = %for.end, %if.then5, %if.then
  %17 = load i32, ptr %retval, align 4
  ret i32 %17
}