; Function Attrs: nounwind uwtable
define hidden range(i32 0, 2) i32 @X509V3_EXT_add_nconf_sk(ptr noundef %conf, ptr noundef %ctx, ptr noundef %section, ptr noundef %sk) local_unnamed_addr #0 {
entry:
  %call = tail call ptr @NCONF_get_section(ptr noundef %conf, ptr noundef %section) #10
  %tobool.not = icmp eq ptr %call, null
  br i1 %tobool.not, label %return, label %for.cond.preheader

for.cond.preheader:                               ; preds = %entry
  %call18 = tail call i64 @sk_num(ptr noundef nonnull %call) #10
  %cmp9.not = icmp eq i64 %call18, 0
  br i1 %cmp9.not, label %return, label %for.body.lr.ph

for.body.lr.ph:                                   ; preds = %for.cond.preheader
  %tobool7.not = icmp eq ptr %sk, null
  br i1 %tobool7.not, label %for.body.us, label %for.body

for.body.us:                                      ; preds = %for.body.lr.ph, %if.end6.us
  %i.010.us = phi i64 [ %inc.us, %if.end6.us ], [ 0, %for.body.lr.ph ]
  %call2.us = tail call ptr @sk_value(ptr noundef nonnull %call, i64 noundef %i.010.us) #10
  %name.us = getelementptr inbounds nuw i8, ptr %call2.us, i64 8
  %0 = load ptr, ptr %name.us, align 8
  %value.us = getelementptr inbounds nuw i8, ptr %call2.us, i64 16
  %1 = load ptr, ptr %value.us, align 8
  %call3.us = tail call ptr @X509V3_EXT_nconf(ptr noundef %conf, ptr noundef %ctx, ptr noundef %0, ptr noundef %1)
  %tobool4.not.us = icmp eq ptr %call3.us, null
  br i1 %tobool4.not.us, label %return, label %if.end6.us

if.end6.us:                                       ; preds = %for.body.us
  tail call void @X509_EXTENSION_free(ptr noundef nonnull %call3.us) #10
  %inc.us = add nuw i64 %i.010.us, 1
  %call1.us = tail call i64 @sk_num(ptr noundef nonnull %call) #10
  %cmp.us = icmp ult i64 %inc.us, %call1.us
  br i1 %cmp.us, label %for.body.us, label %return, !llvm.loop !10

for.body:                                         ; preds = %for.body.lr.ph, %if.end6
  %i.010 = phi i64 [ %inc, %if.end6 ], [ 0, %for.body.lr.ph ]
  %call2 = tail call ptr @sk_value(ptr noundef nonnull %call, i64 noundef %i.010) #10
  %name = getelementptr inbounds nuw i8, ptr %call2, i64 8
  %2 = load ptr, ptr %name, align 8
  %value = getelementptr inbounds nuw i8, ptr %call2, i64 16
  %3 = load ptr, ptr %value, align 8
  %call3 = tail call ptr @X509V3_EXT_nconf(ptr noundef %conf, ptr noundef %ctx, ptr noundef %2, ptr noundef %3)
  %tobool4.not = icmp eq ptr %call3, null
  br i1 %tobool4.not, label %return, label %if.end6

if.end6:                                          ; preds = %for.body
  %call9 = tail call ptr @X509v3_add_ext(ptr noundef nonnull %sk, ptr noundef nonnull %call3, i32 noundef -1) #10
  tail call void @X509_EXTENSION_free(ptr noundef nonnull %call3) #10
  %inc = add nuw i64 %i.010, 1
  %call1 = tail call i64 @sk_num(ptr noundef nonnull %call) #10
  %cmp = icmp ult i64 %inc, %call1
  br i1 %cmp, label %for.body, label %return, !llvm.loop !10

return:                                           ; preds = %for.body, %if.end6, %for.body.us, %if.end6.us, %for.cond.preheader, %entry
  %retval.0 = phi i32 [ 0, %entry ], [ 1, %for.cond.preheader ], [ 0, %for.body.us ], [ 1, %if.end6.us ], [ 0, %for.body ], [ 1, %if.end6 ]
  ret i32 %retval.0
}